; ModuleID = 'source-C-CXX/9/2186.cpp'
source_filename = "source-C-CXX/9/2186.cpp"
target datalayout = "e-m:e-p270:32:32-p271:32:32-p272:64:64-i64:64-f80:128-n8:16:32:64-S128"
target triple = "x86_64-pc-linux-gnu"

%"class.std::ios_base::Init" = type { i8 }
%"class.std::basic_istream" = type { i32 (...)**, i64, %"class.std::basic_ios" }
%"class.std::basic_ios" = type { %"class.std::ios_base", %"class.std::basic_ostream"*, i8, i8, %"class.std::basic_streambuf"*, %"class.std::ctype"*, %"class.std::num_put"*, %"class.std::num_get"* }
%"class.std::ios_base" = type { i32 (...)**, i64, i64, i32, i32, i32, %"struct.std::ios_base::_Callback_list"*, %"struct.std::ios_base::_Words", [8 x %"struct.std::ios_base::_Words"], i32, %"struct.std::ios_base::_Words"*, %"class.std::locale" }
%"struct.std::ios_base::_Callback_list" = type { %"struct.std::ios_base::_Callback_list"*, void (i32, %"class.std::ios_base"*, i32)*, i32, i32 }
%"struct.std::ios_base::_Words" = type { i8*, i64 }
%"class.std::locale" = type { %"class.std::locale::_Impl"* }
%"class.std::locale::_Impl" = type { i32, %"class.std::locale::facet"**, i64, %"class.std::locale::facet"**, i8** }
%"class.std::locale::facet" = type <{ i32 (...)**, i32, [4 x i8] }>
%"class.std::basic_ostream" = type { i32 (...)**, %"class.std::basic_ios" }
%"class.std::basic_streambuf" = type { i32 (...)**, i8*, i8*, i8*, i8*, i8*, i8*, %"class.std::locale" }
%"class.std::ctype" = type <{ %"class.std::locale::facet.base", [4 x i8], %struct.__locale_struct*, i8, [7 x i8], i32*, i32*, i16*, i8, [256 x i8], [256 x i8], i8, [6 x i8] }>
%"class.std::locale::facet.base" = type <{ i32 (...)**, i32 }>
%struct.__locale_struct = type { [13 x %struct.__locale_data*], i16*, i32*, i32*, [13 x i8*] }
%struct.__locale_data = type opaque
%"class.std::num_put" = type { %"class.std::locale::facet.base", [4 x i8] }
%"class.std::num_get" = type { %"class.std::locale::facet.base", [4 x i8] }

@_ZStL8__ioinit = internal global %"class.std::ios_base::Init" zeroinitializer, align 1
@__dso_handle = external hidden global i8
@k = dso_local global i32 0, align 4
@mis = dso_local global [30 x i32] zeroinitializer, align 16
@maxL = dso_local local_unnamed_addr global i32 0, align 4
@curH = dso_local local_unnamed_addr global i32 100000, align 4
@getNum = dso_local local_unnamed_addr global i32 0, align 4
@_ZSt3cin = external global %"class.std::basic_istream", align 8
@_ZSt4cout = external global %"class.std::basic_ostream", align 8
@llvm.global_ctors = appending global [1 x { i32, void ()*, i8* }] [{ i32, void ()*, i8* } { i32 65535, void ()* @_GLOBAL__sub_I_2186.cpp, i8* null }]

declare void @_ZNSt8ios_base4InitC1Ev(%"class.std::ios_base::Init"* nonnull align 1 dereferenceable(1)) unnamed_addr #0

; Function Attrs: nounwind
declare void @_ZNSt8ios_base4InitD1Ev(%"class.std::ios_base::Init"* nonnull align 1 dereferenceable(1)) unnamed_addr #1

; Function Attrs: nofree nounwind
declare i32 @__cxa_atexit(void (i8*)*, i8*, i8*) local_unnamed_addr #2

; Function Attrs: mustprogress nofree norecurse nosync nounwind readnone sspstrong uwtable willreturn
define dso_local i32 @_Z3cmpii(i32 %0, i32 %1) local_unnamed_addr #3 {
  %3 = icmp sle i32 %0, %1
  %4 = zext i1 %3 to i32
  ret i32 %4
}

; Function Attrs: mustprogress nofree nosync nounwind sspstrong uwtable
define dso_local void @_Z8oneStatei(i32 %0) local_unnamed_addr #4 {
  %2 = load i32, i32* @k, align 4, !tbaa !5
  %3 = icmp sgt i32 %2, %0
  br i1 %3, label %4, label %7

4:                                                ; preds = %1
  %5 = sext i32 %0 to i64
  %6 = load i32, i32* @curH, align 4, !tbaa !5
  br label %12

7:                                                ; preds = %28, %1
  %8 = load i32, i32* @getNum, align 4, !tbaa !5
  %9 = load i32, i32* @maxL, align 4, !tbaa !5
  %10 = icmp sgt i32 %8, %9
  br i1 %10, label %11, label %33

11:                                               ; preds = %7
  store i32 %8, i32* @maxL, align 4, !tbaa !5
  br label %33

12:                                               ; preds = %4, %28
  %13 = phi i32 [ %2, %4 ], [ %30, %28 ]
  %14 = phi i64 [ %5, %4 ], [ %29, %28 ]
  %15 = getelementptr inbounds [30 x i32], [30 x i32]* @mis, i64 0, i64 %14
  %16 = load i32, i32* %15, align 4, !tbaa !5
  %17 = icmp sgt i32 %16, %6
  br i1 %17, label %18, label %20

18:                                               ; preds = %12
  %19 = add nsw i64 %14, 1
  br label %28

20:                                               ; preds = %12
  store i32 %16, i32* @curH, align 4, !tbaa !5
  %21 = load i32, i32* @getNum, align 4, !tbaa !5
  %22 = add nsw i32 %21, 1
  store i32 %22, i32* @getNum, align 4, !tbaa !5
  %23 = add nsw i64 %14, 1
  %24 = trunc i64 %23 to i32
  tail call void @_Z8oneStatei(i32 %24)
  store i32 %6, i32* @curH, align 4, !tbaa !5
  %25 = load i32, i32* @getNum, align 4, !tbaa !5
  %26 = add nsw i32 %25, -1
  store i32 %26, i32* @getNum, align 4, !tbaa !5
  %27 = load i32, i32* @k, align 4, !tbaa !5
  br label %28

28:                                               ; preds = %18, %20
  %29 = phi i64 [ %19, %18 ], [ %23, %20 ]
  %30 = phi i32 [ %13, %18 ], [ %27, %20 ]
  %31 = sext i32 %30 to i64
  %32 = icmp slt i64 %29, %31
  br i1 %32, label %12, label %7

33:                                               ; preds = %7, %11
  ret void
}

; Function Attrs: mustprogress norecurse sspstrong uwtable
define dso_local i32 @main() local_unnamed_addr #5 {
  %1 = tail call nonnull align 8 dereferenceable(16) %"class.std::basic_istream"* @_ZNSirsERi(%"class.std::basic_istream"* nonnull align 8 dereferenceable(16) @_ZSt3cin, i32* nonnull align 4 dereferenceable(4) @k)
  %2 = load i32, i32* @k, align 4, !tbaa !5
  %3 = icmp sgt i32 %2, 0
  br i1 %3, label %36, label %4

4:                                                ; preds = %36, %0
  tail call void @_Z8oneStatei(i32 0)
  %5 = load i32, i32* @maxL, align 4, !tbaa !5
  %6 = tail call nonnull align 8 dereferenceable(8) %"class.std::basic_ostream"* @_ZNSolsEi(%"class.std::basic_ostream"* nonnull align 8 dereferenceable(8) @_ZSt4cout, i32 %5)
  %7 = bitcast %"class.std::basic_ostream"* %6 to i8**
  %8 = load i8*, i8** %7, align 8, !tbaa !9
  %9 = getelementptr i8, i8* %8, i64 -24
  %10 = bitcast i8* %9 to i64*
  %11 = load i64, i64* %10, align 8
  %12 = bitcast %"class.std::basic_ostream"* %6 to i8*
  %13 = add nsw i64 %11, 240
  %14 = getelementptr inbounds i8, i8* %12, i64 %13
  %15 = bitcast i8* %14 to %"class.std::ctype"**
  %16 = load %"class.std::ctype"*, %"class.std::ctype"** %15, align 8, !tbaa !11
  %17 = icmp eq %"class.std::ctype"* %16, null
  br i1 %17, label %18, label %19

18:                                               ; preds = %4
  tail call void @_ZSt16__throw_bad_castv() #8
  unreachable

19:                                               ; preds = %4
  %20 = getelementptr inbounds %"class.std::ctype", %"class.std::ctype"* %16, i64 0, i32 8
  %21 = load i8, i8* %20, align 8, !tbaa !15
  %22 = icmp eq i8 %21, 0
  br i1 %22, label %26, label %23

23:                                               ; preds = %19
  %24 = getelementptr inbounds %"class.std::ctype", %"class.std::ctype"* %16, i64 0, i32 9, i64 10
  %25 = load i8, i8* %24, align 1, !tbaa !17
  br label %32

26:                                               ; preds = %19
  tail call void @_ZNKSt5ctypeIcE13_M_widen_initEv(%"class.std::ctype"* nonnull align 8 dereferenceable(570) %16)
  %27 = bitcast %"class.std::ctype"* %16 to i8 (%"class.std::ctype"*, i8)***
  %28 = load i8 (%"class.std::ctype"*, i8)**, i8 (%"class.std::ctype"*, i8)*** %27, align 8, !tbaa !9
  %29 = getelementptr inbounds i8 (%"class.std::ctype"*, i8)*, i8 (%"class.std::ctype"*, i8)** %28, i64 6
  %30 = load i8 (%"class.std::ctype"*, i8)*, i8 (%"class.std::ctype"*, i8)** %29, align 8
  %31 = tail call signext i8 %30(%"class.std::ctype"* nonnull align 8 dereferenceable(570) %16, i8 signext 10)
  br label %32

32:                                               ; preds = %23, %26
  %33 = phi i8 [ %25, %23 ], [ %31, %26 ]
  %34 = tail call nonnull align 8 dereferenceable(8) %"class.std::basic_ostream"* @_ZNSo3putEc(%"class.std::basic_ostream"* nonnull align 8 dereferenceable(8) %6, i8 signext %33)
  %35 = tail call nonnull align 8 dereferenceable(8) %"class.std::basic_ostream"* @_ZNSo5flushEv(%"class.std::basic_ostream"* nonnull align 8 dereferenceable(8) %34)
  ret i32 0

36:                                               ; preds = %0, %36
  %37 = phi i64 [ %40, %36 ], [ 0, %0 ]
  %38 = getelementptr inbounds [30 x i32], [30 x i32]* @mis, i64 0, i64 %37
  %39 = tail call nonnull align 8 dereferenceable(16) %"class.std::basic_istream"* @_ZNSirsERi(%"class.std::basic_istream"* nonnull align 8 dereferenceable(16) @_ZSt3cin, i32* nonnull align 4 dereferenceable(4) %38)
  %40 = add nuw nsw i64 %37, 1
  %41 = load i32, i32* @k, align 4, !tbaa !5
  %42 = sext i32 %41 to i64
  %43 = icmp slt i64 %40, %42
  br i1 %43, label %36, label %4, !llvm.loop !18
}

declare nonnull align 8 dereferenceable(16) %"class.std::basic_istream"* @_ZNSirsERi(%"class.std::basic_istream"* nonnull align 8 dereferenceable(16), i32* nonnull align 4 dereferenceable(4)) local_unnamed_addr #0

declare nonnull align 8 dereferenceable(8) %"class.std::basic_ostream"* @_ZNSolsEi(%"class.std::basic_ostream"* nonnull align 8 dereferenceable(8), i32) local_unnamed_addr #0

declare nonnull align 8 dereferenceable(8) %"class.std::basic_ostream"* @_ZNSo3putEc(%"class.std::basic_ostream"* nonnull align 8 dereferenceable(8), i8 signext) local_unnamed_addr #0

declare nonnull align 8 dereferenceable(8) %"class.std::basic_ostream"* @_ZNSo5flushEv(%"class.std::basic_ostream"* nonnull align 8 dereferenceable(8)) local_unnamed_addr #0

; Function Attrs: noreturn
declare void @_ZSt16__throw_bad_castv() local_unnamed_addr #6

declare void @_ZNKSt5ctypeIcE13_M_widen_initEv(%"class.std::ctype"* nonnull align 8 dereferenceable(570)) local_unnamed_addr #0

; Function Attrs: sspstrong uwtable
define internal void @_GLOBAL__sub_I_2186.cpp() #7 section ".text.startup" {
  tail call void @_ZNSt8ios_base4InitC1Ev(%"class.std::ios_base::Init"* nonnull align 1 dereferenceable(1) @_ZStL8__ioinit)
  %1 = tail call i32 @__cxa_atexit(void (i8*)* bitcast (void (%"class.std::ios_base::Init"*)* @_ZNSt8ios_base4InitD1Ev to void (i8*)*), i8* getelementptr inbounds (%"class.std::ios_base::Init", %"class.std::ios_base::Init"* @_ZStL8__ioinit, i64 0, i32 0), i8* nonnull @__dso_handle) #9
  ret void
}


!llvm.module.flags = !{!0, !1, !2, !3}
!llvm.ident = !{!4}

!0 = !{i32 1, !"wchar_size", i32 4}
!1 = !{i32 7, !"PIC Level", i32 2}
!2 = !{i32 7, !"PIE Level", i32 2}
!3 = !{i32 7, !"uwtable", i32 1}
!4 = !{!"clang version 13.0.0"}
!5 = !{!6, !6, i64 0}
!6 = !{!"int", !7, i64 0}
!7 = !{!"omnipotent char", !8, i64 0}
!8 = !{!"Simple C++ TBAA"}
!9 = !{!10, !10, i64 0}
!10 = !{!"vtable pointer", !8, i64 0}
!11 = !{!12, !13, i64 240}
!12 = !{!"_ZTSSt9basic_iosIcSt11char_traitsIcEE", !13, i64 216, !7, i64 224, !14, i64 225, !13, i64 232, !13, i64 240, !13, i64 248, !13, i64 256}
!13 = !{!"any pointer", !7, i64 0}
!14 = !{!"bool", !7, i64 0}
!15 = !{!16, !7, i64 56}
!16 = !{!"_ZTSSt5ctypeIcE", !13, i64 16, !14, i64 24, !13, i64 32, !13, i64 40, !13, i64 48, !7, i64 56, !7, i64 57, !7, i64 313, !7, i64 569}
!17 = !{!7, !7, i64 0}
!18 = distinct !{!18, !19}
!19 = !{!"llvm.loop.mustprogress"}
